; Function Attrs: mustprogress nofree nounwind willreturn memory(read, argmem: readwrite, inaccessiblemem: none) uwtable
define hidden range(i32 -46, 1) i32 @mbedtls_oid_get_certificate_policies(ptr noundef readonly captures(address_is_null) %0, ptr noundef writeonly captures(none) %1) local_unnamed_addr #1 {
  %3 = icmp eq ptr %0, null
  br i1 %3, label %_ZL34oid_certificate_policies_from_asn1PK16mbedtls_asn1_buf.exit.thread, label %.preheader.i

.preheader.i:                                     ; preds = %2
  %4 = getelementptr inbounds nuw i8, ptr %0, i64 8
  %5 = load i64, ptr %4, align 8, !tbaa !3
  %6 = icmp eq i64 %5, 4
  br i1 %6, label %7, label %_ZL34oid_certificate_policies_from_asn1PK16mbedtls_asn1_buf.exit.thread

7:                                                ; preds = %.preheader.i
  %8 = getelementptr inbounds nuw i8, ptr %0, i64 16
  %9 = load ptr, ptr %8, align 8, !tbaa !13
  %bcmp.i = tail call i32 @bcmp(ptr noundef nonnull dereferenceable(4) @.str.118, ptr noundef nonnull dereferenceable(4) %9, i64 4)
  %10 = icmp eq i32 %bcmp.i, 0
  br i1 %10, label %_ZL34oid_certificate_policies_from_asn1PK16mbedtls_asn1_buf.exit, label %_ZL34oid_certificate_policies_from_asn1PK16mbedtls_asn1_buf.exit.thread

_ZL34oid_certificate_policies_from_asn1PK16mbedtls_asn1_buf.exit: ; preds = %7
  store ptr @.str.120, ptr %1, align 8, !tbaa !19
  br label %_ZL34oid_certificate_policies_from_asn1PK16mbedtls_asn1_buf.exit.thread

_ZL34oid_certificate_policies_from_asn1PK16mbedtls_asn1_buf.exit.thread: ; preds = %.preheader.i, %7, %2, %_ZL34oid_certificate_policies_from_asn1PK16mbedtls_asn1_buf.exit
  %.0 = phi i32 [ 0, %_ZL34oid_certificate_policies_from_asn1PK16mbedtls_asn1_buf.exit ], [ -46, %2 ], [ -46, %7 ], [ -46, %.preheader.i ]
  ret i32 %.0
}